target datalayout = "e-m:e-p270:32:32-p271:32:32-p272:64:64-i64:64-i128:128-f80:128-n8:16:32:64-S128"
target triple = "x86_64-pc-linux-gnu"

; Function Attrs: nounwind uwtable
define zeroext i8 @Java_jdk_net_LinuxSocketOptions_keepAliveOptionsSupported0(ptr noundef %0, ptr noundef %1) #0 {
  %3 = alloca ptr, align 8
  %4 = alloca ptr, align 8
  store ptr %0, ptr %3, align 8
  store ptr %1, ptr %4, align 8
  %5 = call i32 @socketOptionSupported(i32 noundef 6, i32 noundef 4)
  %6 = icmp ne i32 %5, 0
  br i1 %6, label %7, label %13

7:                                                ; preds = %2
  %8 = call i32 @socketOptionSupported(i32 noundef 6, i32 noundef 6)
  %9 = icmp ne i32 %8, 0
  br i1 %9, label %10, label %13

10:                                               ; preds = %7
  %11 = call i32 @socketOptionSupported(i32 noundef 6, i32 noundef 5)
  %12 = icmp ne i32 %11, 0
  br label %13

13:                                               ; preds = %10, %7, %2
  %14 = phi i1 [ false, %7 ], [ false, %2 ], [ %12, %10 ]
  %15 = zext i1 %14 to i32
  %16 = trunc i32 %15 to i8
  ret i8 %16
}