; Function Attrs: nounwind uwtable
define zeroext range(i8 0, 2) i8 @Java_jdk_net_LinuxSocketOptions_keepAliveOptionsSupported0(ptr nocapture noundef readnone %0, ptr nocapture noundef readnone %1) local_unnamed_addr #0 {
  %3 = tail call fastcc i32 @socketOptionSupported(i32 noundef 6, i32 noundef 4)
  %.not = icmp eq i32 %3, 0
  br i1 %.not, label %9, label %4

4:                                                ; preds = %2
  %5 = tail call fastcc i32 @socketOptionSupported(i32 noundef 6, i32 noundef 6)
  %.not1 = icmp eq i32 %5, 0
  br i1 %.not1, label %9, label %6

6:                                                ; preds = %4
  %7 = tail call fastcc i32 @socketOptionSupported(i32 noundef 6, i32 noundef 5)
  %8 = trunc nuw nsw i32 %7 to i8
  br label %9

9:                                                ; preds = %6, %4, %2
  %10 = phi i8 [ 0, %4 ], [ 0, %2 ], [ %8, %6 ]
  ret i8 %10
}